target datalayout = "e-m:e-p270:32:32-p271:32:32-p272:64:64-i64:64-i128:128-f80:128-n8:16:32:64-S128"
target triple = "x86_64-pc-linux-gnu"

%struct.t_atoms = type { i32, ptr, ptr, ptr, ptr, i32, ptr, ptr, i8, i8, i8, i8, i8 }

@.str.6 = private unnamed_addr constant [124 x i8] c"generated/home/dtcxzyw/WorkSpace/Projects/compilers/llvm-opt-benchmark/bench/gromacs/gromacs/src/gromacs/topology/atoms.cpp\00", align 1
@.str.12 = private unnamed_addr constant [16 x i8] c"atoms->atomname\00", align 1
@.str.13 = private unnamed_addr constant [12 x i8] c"atoms->atom\00", align 1
@.str.14 = private unnamed_addr constant [15 x i8] c"atoms->pdbinfo\00", align 1
@.str.17 = private unnamed_addr constant [15 x i8] c"atoms->resinfo\00", align 1

; Function Attrs: inlinehint mustprogress uwtable
define internal void @_ZL13gmx_snew_implI9t_pdbinfoEvPKcS2_iRPT_m(ptr noundef %0, ptr noundef %1, i32 noundef %2, ptr noundef nonnull align 8 dereferenceable(8) %3, i64 noundef %4) #10 {
  %6 = alloca ptr, align 8
  %7 = alloca ptr, align 8
  %8 = alloca i32, align 4
  %9 = alloca ptr, align 8
  %10 = alloca i64, align 8
  store ptr %0, ptr %6, align 8, !tbaa !8
  store ptr %1, ptr %7, align 8, !tbaa !8
  store i32 %2, ptr %8, align 4, !tbaa !60
  store ptr %3, ptr %9, align 8, !tbaa !129
  store i64 %4, ptr %10, align 8, !tbaa !75
  %11 = load ptr, ptr %6, align 8, !tbaa !8
  %12 = load ptr, ptr %7, align 8, !tbaa !8
  %13 = load i32, ptr %8, align 4, !tbaa !60
  %14 = load i64, ptr %10, align 8, !tbaa !75
  %15 = call noundef ptr @_Z11save_callocPKcS0_imm(ptr noundef %11, ptr noundef %12, i32 noundef %13, i64 noundef %14, i64 noundef 52)
  %16 = load ptr, ptr %9, align 8, !tbaa !129
  store ptr %15, ptr %16, align 8, !tbaa !118
  ret void
}

; Function Attrs: inlinehint mustprogress uwtable
define internal void @_ZL13gmx_snew_implI6t_atomEvPKcS2_iRPT_m(ptr noundef %0, ptr noundef %1, i32 noundef %2, ptr noundef nonnull align 8 dereferenceable(8) %3, i64 noundef %4) #10 {
  %6 = alloca ptr, align 8
  %7 = alloca ptr, align 8
  %8 = alloca i32, align 4
  %9 = alloca ptr, align 8
  %10 = alloca i64, align 8
  store ptr %0, ptr %6, align 8, !tbaa !8
  store ptr %1, ptr %7, align 8, !tbaa !8
  store i32 %2, ptr %8, align 4, !tbaa !60
  store ptr %3, ptr %9, align 8, !tbaa !127
  store i64 %4, ptr %10, align 8, !tbaa !75
  %11 = load ptr, ptr %6, align 8, !tbaa !8
  %12 = load ptr, ptr %7, align 8, !tbaa !8
  %13 = load i32, ptr %8, align 4, !tbaa !60
  %14 = load i64, ptr %10, align 8, !tbaa !75
  %15 = call noundef ptr @_Z11save_callocPKcS0_imm(ptr noundef %11, ptr noundef %12, i32 noundef %13, i64 noundef %14, i64 noundef 36)
  %16 = load ptr, ptr %9, align 8, !tbaa !127
  store ptr %15, ptr %16, align 8, !tbaa !115
  ret void
}

; Function Attrs: inlinehint mustprogress uwtable
define internal void @_ZL13gmx_snew_implI9t_resinfoEvPKcS2_iRPT_m(ptr noundef %0, ptr noundef %1, i32 noundef %2, ptr noundef nonnull align 8 dereferenceable(8) %3, i64 noundef %4) #10 {
  %6 = alloca ptr, align 8
  %7 = alloca ptr, align 8
  %8 = alloca i32, align 4
  %9 = alloca ptr, align 8
  %10 = alloca i64, align 8
  store ptr %0, ptr %6, align 8, !tbaa !8
  store ptr %1, ptr %7, align 8, !tbaa !8
  store i32 %2, ptr %8, align 4, !tbaa !60
  store ptr %3, ptr %9, align 8, !tbaa !131
  store i64 %4, ptr %10, align 8, !tbaa !75
  %11 = load ptr, ptr %6, align 8, !tbaa !8
  %12 = load ptr, ptr %7, align 8, !tbaa !8
  %13 = load i32, ptr %8, align 4, !tbaa !60
  %14 = load i64, ptr %10, align 8, !tbaa !75
  %15 = call noundef ptr @_Z11save_callocPKcS0_imm(ptr noundef %11, ptr noundef %12, i32 noundef %13, i64 noundef %14, i64 noundef 32)
  %16 = load ptr, ptr %9, align 8, !tbaa !131
  store ptr %15, ptr %16, align 8, !tbaa !116
  ret void
}

; Function Attrs: inlinehint mustprogress uwtable
define internal void @_ZL13gmx_snew_implIPPcEvPKcS3_iRPT_m(ptr noundef %0, ptr noundef %1, i32 noundef %2, ptr noundef nonnull align 8 dereferenceable(8) %3, i64 noundef %4) #10 {
  %6 = alloca ptr, align 8
  %7 = alloca ptr, align 8
  %8 = alloca i32, align 4
  %9 = alloca ptr, align 8
  %10 = alloca i64, align 8
  store ptr %0, ptr %6, align 8, !tbaa !8
  store ptr %1, ptr %7, align 8, !tbaa !8
  store i32 %2, ptr %8, align 4, !tbaa !60
  store ptr %3, ptr %9, align 8, !tbaa !124
  store i64 %4, ptr %10, align 8, !tbaa !75
  %11 = load ptr, ptr %6, align 8, !tbaa !8
  %12 = load ptr, ptr %7, align 8, !tbaa !8
  %13 = load i32, ptr %8, align 4, !tbaa !60
  %14 = load i64, ptr %10, align 8, !tbaa !75
  %15 = call noundef ptr @_Z11save_callocPKcS0_imm(ptr noundef %11, ptr noundef %12, i32 noundef %13, i64 noundef %14, i64 noundef 8)
  %16 = load ptr, ptr %9, align 8, !tbaa !124
  store ptr %15, ptr %16, align 8, !tbaa !117
  ret void
}

; Function Attrs: mustprogress uwtable
define void @_Z12init_t_atomsP7t_atomsib(ptr noundef %0, i32 noundef %1, i1 noundef zeroext %2) #0 {
  %4 = alloca ptr, align 8
  %5 = alloca i32, align 4
  %6 = alloca i8, align 1
  store ptr %0, ptr %4, align 8, !tbaa !93
  store i32 %1, ptr %5, align 4, !tbaa !60
  %7 = zext i1 %2 to i8
  store i8 %7, ptr %6, align 1, !tbaa !133
  %8 = load i32, ptr %5, align 4, !tbaa !60
  %9 = load ptr, ptr %4, align 8, !tbaa !93
  %10 = getelementptr inbounds nuw %struct.t_atoms, ptr %9, i32 0, i32 0
  store i32 %8, ptr %10, align 8, !tbaa !95
  %11 = load ptr, ptr %4, align 8, !tbaa !93
  %12 = getelementptr inbounds nuw %struct.t_atoms, ptr %11, i32 0, i32 5
  store i32 0, ptr %12, align 8, !tbaa !103
  %13 = load ptr, ptr %4, align 8, !tbaa !93
  %14 = getelementptr inbounds nuw %struct.t_atoms, ptr %13, i32 0, i32 2
  %15 = load i32, ptr %5, align 4, !tbaa !60
  %16 = sext i32 %15 to i64
  call void @_ZL13gmx_snew_implIPPcEvPKcS3_iRPT_m(ptr noundef @.str.12, ptr noundef @.str.6, i32 noundef 305, ptr noundef nonnull align 8 dereferenceable(8) %14, i64 noundef %16)
  %17 = load ptr, ptr %4, align 8, !tbaa !93
  %18 = getelementptr inbounds nuw %struct.t_atoms, ptr %17, i32 0, i32 3
  store ptr null, ptr %18, align 8, !tbaa !107
  %19 = load ptr, ptr %4, align 8, !tbaa !93
  %20 = getelementptr inbounds nuw %struct.t_atoms, ptr %19, i32 0, i32 4
  store ptr null, ptr %20, align 8, !tbaa !108
  %21 = load ptr, ptr %4, align 8, !tbaa !93
  %22 = getelementptr inbounds nuw %struct.t_atoms, ptr %21, i32 0, i32 6
  %23 = load i32, ptr %5, align 4, !tbaa !60
  %24 = sext i32 %23 to i64
  call void @_ZL13gmx_snew_implI9t_resinfoEvPKcS2_iRPT_m(ptr noundef @.str.17, ptr noundef @.str.6, i32 noundef 308, ptr noundef nonnull align 8 dereferenceable(8) %22, i64 noundef %24)
  %25 = load ptr, ptr %4, align 8, !tbaa !93
  %26 = getelementptr inbounds nuw %struct.t_atoms, ptr %25, i32 0, i32 1
  %27 = load i32, ptr %5, align 4, !tbaa !60
  %28 = sext i32 %27 to i64
  call void @_ZL13gmx_snew_implI6t_atomEvPKcS2_iRPT_m(ptr noundef @.str.13, ptr noundef @.str.6, i32 noundef 309, ptr noundef nonnull align 8 dereferenceable(8) %26, i64 noundef %28)
  %29 = load ptr, ptr %4, align 8, !tbaa !93
  %30 = getelementptr inbounds nuw %struct.t_atoms, ptr %29, i32 0, i32 8
  store i8 0, ptr %30, align 8, !tbaa !110
  %31 = load ptr, ptr %4, align 8, !tbaa !93
  %32 = getelementptr inbounds nuw %struct.t_atoms, ptr %31, i32 0, i32 9
  store i8 0, ptr %32, align 1, !tbaa !111
  %33 = load ptr, ptr %4, align 8, !tbaa !93
  %34 = getelementptr inbounds nuw %struct.t_atoms, ptr %33, i32 0, i32 10
  store i8 0, ptr %34, align 2, !tbaa !112
  %35 = load ptr, ptr %4, align 8, !tbaa !93
  %36 = getelementptr inbounds nuw %struct.t_atoms, ptr %35, i32 0, i32 11
  store i8 0, ptr %36, align 1, !tbaa !113
  %37 = load i8, ptr %6, align 1, !tbaa !133, !range !38, !noundef !39
  %38 = trunc i8 %37 to i1
  %39 = load ptr, ptr %4, align 8, !tbaa !93
  %40 = getelementptr inbounds nuw %struct.t_atoms, ptr %39, i32 0, i32 12
  %41 = zext i1 %38 to i8
  store i8 %41, ptr %40, align 4, !tbaa !114
  %42 = load ptr, ptr %4, align 8, !tbaa !93
  %43 = getelementptr inbounds nuw %struct.t_atoms, ptr %42, i32 0, i32 12
  %44 = load i8, ptr %43, align 4, !tbaa !114, !range !38, !noundef !39
  %45 = trunc i8 %44 to i1
  br i1 %45, label %46, label %51

46:                                               ; preds = %3
  %47 = load ptr, ptr %4, align 8, !tbaa !93
  %48 = getelementptr inbounds nuw %struct.t_atoms, ptr %47, i32 0, i32 7
  %49 = load i32, ptr %5, align 4, !tbaa !60
  %50 = sext i32 %49 to i64
  call void @_ZL13gmx_snew_implI9t_pdbinfoEvPKcS2_iRPT_m(ptr noundef @.str.14, ptr noundef @.str.6, i32 noundef 317, ptr noundef nonnull align 8 dereferenceable(8) %48, i64 noundef %50)
  br label %54

51:                                               ; preds = %3
  %52 = load ptr, ptr %4, align 8, !tbaa !93
  %53 = getelementptr inbounds nuw %struct.t_atoms, ptr %52, i32 0, i32 7
  store ptr null, ptr %53, align 8, !tbaa !109
  br label %54

54:                                               ; preds = %51, %46
  ret void
}