; Function Attrs: mustprogress uwtable
define void @_Z12init_t_atomsP7t_atomsib(ptr noundef writeonly captures(none) initializes((0, 4), (8, 44), (48, 69)) %0, i32 noundef %1, i1 noundef zeroext %2) local_unnamed_addr #1 {
  %4 = zext i1 %2 to i8
  store i32 %1, ptr %0, align 8, !tbaa !44
  %5 = getelementptr inbounds nuw i8, ptr %0, i64 40
  store i32 0, ptr %5, align 8, !tbaa !65
  %6 = getelementptr inbounds nuw i8, ptr %0, i64 16
  %7 = sext i32 %1 to i64
  %8 = tail call noundef ptr @_Z11save_callocPKcS0_imm(ptr noundef nonnull @.str.12, ptr noundef nonnull @.str.6, i32 noundef 305, i64 noundef range(i64 -2147483648, 2147483648) %7, i64 noundef 8)
  store ptr %8, ptr %6, align 8, !tbaa !58
  %9 = getelementptr inbounds nuw i8, ptr %0, i64 24
  %10 = getelementptr inbounds nuw i8, ptr %0, i64 48
  tail call void @llvm.memset.p0.i64(ptr noundef nonnull align 8 dereferenceable(16) %9, i8 0, i64 16, i1 false)
  %11 = tail call noundef ptr @_Z11save_callocPKcS0_imm(ptr noundef nonnull @.str.17, ptr noundef nonnull @.str.6, i32 noundef 308, i64 noundef range(i64 -2147483648, 2147483648) %7, i64 noundef 32)
  store ptr %11, ptr %10, align 8, !tbaa !66
  %12 = getelementptr inbounds nuw i8, ptr %0, i64 8
  %13 = tail call noundef ptr @_Z11save_callocPKcS0_imm(ptr noundef nonnull @.str.13, ptr noundef nonnull @.str.6, i32 noundef 309, i64 noundef range(i64 -2147483648, 2147483648) %7, i64 noundef 36)
  store ptr %13, ptr %12, align 8, !tbaa !59
  %14 = getelementptr inbounds nuw i8, ptr %0, i64 64
  %15 = getelementptr inbounds nuw i8, ptr %0, i64 68
  store i32 0, ptr %14, align 8
  store i8 %4, ptr %15, align 4, !tbaa !68
  br i1 %2, label %16, label %18

16:                                               ; preds = %3
  %17 = tail call noundef ptr @_Z11save_callocPKcS0_imm(ptr noundef nonnull @.str.14, ptr noundef nonnull @.str.6, i32 noundef 317, i64 noundef range(i64 -2147483648, 2147483648) %7, i64 noundef 52)
  br label %18

18:                                               ; preds = %3, %16
  %.sink = phi ptr [ %17, %16 ], [ null, %3 ]
  %19 = getelementptr inbounds nuw i8, ptr %0, i64 56
  store ptr %.sink, ptr %19, align 8, !tbaa !60
  ret void
}